target datalayout = "e-m:e-p270:32:32-p271:32:32-p272:64:64-i64:64-i128:128-f80:128-n8:16:32:64-S128"
target triple = "x86_64-pc-linux-gnu"

%"struct.duckdb_yyjson::yyjson_alc" = type { ptr, ptr, ptr, ptr }
%"struct.duckdb_yyjson::yyjson_doc" = type { ptr, %"struct.duckdb_yyjson::yyjson_alc", i64, i64, ptr }

; Function Attrs: mustprogress uwtable
define noundef zeroext i1 @_ZN13duckdb_yyjson17yyjson_write_fileEPKcPKNS_10yyjson_docEjPKNS_10yyjson_alcEPNS_16yyjson_write_errE(ptr noundef %0, ptr noundef %1, i32 noundef %2, ptr noundef %3, ptr noundef %4) #1 {
  %6 = alloca ptr, align 8
  %7 = alloca ptr, align 8
  %8 = alloca i32, align 4
  %9 = alloca ptr, align 8
  %10 = alloca ptr, align 8
  %11 = alloca ptr, align 8
  store ptr %0, ptr %6, align 8, !tbaa !92
  store ptr %1, ptr %7, align 8, !tbaa !80
  store i32 %2, ptr %8, align 4, !tbaa !198
  store ptr %3, ptr %9, align 8, !tbaa !3
  store ptr %4, ptr %10, align 8, !tbaa !247
  call void @llvm.lifetime.start.p0(i64 8, ptr %11) #15
  %12 = load ptr, ptr %7, align 8, !tbaa !80
  %13 = icmp ne ptr %12, null
  br i1 %13, label %14, label %18

14:                                               ; preds = %5
  %15 = load ptr, ptr %7, align 8, !tbaa !80
  %16 = getelementptr inbounds nuw %"struct.duckdb_yyjson::yyjson_doc", ptr %15, i32 0, i32 0
  %17 = load ptr, ptr %16, align 8, !tbaa !82
  br label %19

18:                                               ; preds = %5
  br label %19

19:                                               ; preds = %18, %14
  %20 = phi ptr [ %17, %14 ], [ null, %18 ]
  store ptr %20, ptr %11, align 8, !tbaa !86
  %21 = load ptr, ptr %6, align 8, !tbaa !92
  %22 = load ptr, ptr %11, align 8, !tbaa !86
  %23 = load i32, ptr %8, align 4, !tbaa !198
  %24 = load ptr, ptr %9, align 8, !tbaa !3
  %25 = load ptr, ptr %10, align 8, !tbaa !247
  %26 = call noundef zeroext i1 @_ZN13duckdb_yyjson21yyjson_val_write_fileEPKcPKNS_10yyjson_valEjPKNS_10yyjson_alcEPNS_16yyjson_write_errE(ptr noundef %21, ptr noundef %22, i32 noundef %23, ptr noundef %24, ptr noundef %25)
  call void @llvm.lifetime.end.p0(i64 8, ptr %11) #15
  ret i1 %26
}