; Function Attrs: mustprogress uwtable
define noundef zeroext i1 @_ZN13duckdb_yyjson17yyjson_write_fileEPKcPKNS_10yyjson_docEjPKNS_10yyjson_alcEPNS_16yyjson_write_errE(ptr noundef captures(address_is_null) %0, ptr noundef readonly captures(address_is_null) %1, i32 noundef %2, ptr noundef captures(address_is_null) %3, ptr noundef captures(address_is_null) %4) local_unnamed_addr #10 {
  %.not = icmp eq ptr %1, null
  br i1 %.not, label %8, label %6

6:                                                ; preds = %5
  %7 = load ptr, ptr %1, align 8, !tbaa !69
  br label %8

8:                                                ; preds = %5, %6
  %9 = phi ptr [ %7, %6 ], [ null, %5 ]
  %10 = tail call noundef zeroext i1 @_ZN13duckdb_yyjson21yyjson_val_write_fileEPKcPKNS_10yyjson_valEjPKNS_10yyjson_alcEPNS_16yyjson_write_errE(ptr noundef %0, ptr noundef %9, i32 noundef %2, ptr noundef %3, ptr noundef %4)
  ret i1 %10
}